; Function Attrs: nofree nounwind uwtable
define dso_local void @printAofStyle(i32 noundef %0, ptr noundef %1, ptr noundef %2) local_unnamed_addr #0 {
  switch i32 %0, label %13 [
    i32 0, label %4
    i32 1, label %6
    i32 3, label %8
    i32 2, label %11
  ]

4:                                                ; preds = %3
  %5 = tail call i32 (ptr, ...) @printf(ptr noundef nonnull dereferenceable(1) @.str.42, ptr noundef %2, ptr noundef %1)
  br label %13

6:                                                ; preds = %3
  %7 = tail call i32 (ptr, ...) @printf(ptr noundef nonnull dereferenceable(1) @.str.43, ptr noundef %2, ptr noundef %1)
  br label %13

8:                                                ; preds = %3
  %9 = load i64, ptr @to_timestamp, align 8, !tbaa !8
  %10 = tail call i32 (ptr, ...) @printf(ptr noundef nonnull dereferenceable(1) @.str.44, ptr noundef %1, i64 noundef %9)
  br label %13

11:                                               ; preds = %3
  %12 = tail call i32 (ptr, ...) @printf(ptr noundef nonnull dereferenceable(1) @.str.45, ptr noundef %1)
  br label %13

13:                                               ; preds = %3, %6, %11, %8, %4
  ret void
}